#include <math.h>
#include <stdio.h>
#include <stdlib.h>
#include <string.h>

void main()
{
	int n,i,j,a,b;
	scanf("%d",&n);
	a=n;
	for(i=0;a!=1;i++)
	{
		if(a%2!=0)
		{
			b=a*3+1;
			printf("%d*3+1=%d\n",a,b);
			a=b;
		}
		else
		{
			b=a/2;
			printf("%d/2=%d\n",a,b);
			a=b;
		}
	}
	printf("End");
}