; ModuleID = '34/2671.c'
source_filename = "34/2671.c"
target datalayout = "e-m:e-p270:32:32-p271:32:32-p272:64:64-i64:64-f80:128-n8:16:32:64-S128"
target triple = "x86_64-pc-linux-gnu"

@.str = private unnamed_addr constant [3 x i8] c"%d\00", align 1
@.str.1 = private unnamed_addr constant [11 x i8] c"%d*3+1=%d\0A\00", align 1
@.str.2 = private unnamed_addr constant [9 x i8] c"%d/2=%d\0A\00", align 1
@.str.3 = private unnamed_addr constant [4 x i8] c"End\00", align 1

; Function Attrs: noinline nounwind uwtable
define dso_local void @main() #0 {
  %1 = alloca i32, align 4
  %2 = alloca i32, align 4
  %3 = alloca i32, align 4
  %4 = alloca i32, align 4
  %5 = alloca i32, align 4
  %6 = call i32 (i8*, ...) @__isoc99_scanf(i8* getelementptr inbounds ([3 x i8], [3 x i8]* @.str, i64 0, i64 0), i32* %1)
  %7 = load i32, i32* %1, align 4
  store i32 %7, i32* %4, align 4
  store i32 0, i32* %2, align 4
  br label %8

8:                                                ; preds = %31, %0
  %9 = load i32, i32* %4, align 4
  %10 = icmp ne i32 %9, 1
  br i1 %10, label %11, label %34

11:                                               ; preds = %8
  %12 = load i32, i32* %4, align 4
  %13 = srem i32 %12, 2
  %14 = icmp ne i32 %13, 0
  br i1 %14, label %15, label %23

15:                                               ; preds = %11
  %16 = load i32, i32* %4, align 4
  %17 = mul nsw i32 %16, 3
  %18 = add nsw i32 %17, 1
  store i32 %18, i32* %5, align 4
  %19 = load i32, i32* %4, align 4
  %20 = load i32, i32* %5, align 4
  %21 = call i32 (i8*, ...) @printf(i8* getelementptr inbounds ([11 x i8], [11 x i8]* @.str.1, i64 0, i64 0), i32 %19, i32 %20)
  %22 = load i32, i32* %5, align 4
  store i32 %22, i32* %4, align 4
  br label %30

23:                                               ; preds = %11
  %24 = load i32, i32* %4, align 4
  %25 = sdiv i32 %24, 2
  store i32 %25, i32* %5, align 4
  %26 = load i32, i32* %4, align 4
  %27 = load i32, i32* %5, align 4
  %28 = call i32 (i8*, ...) @printf(i8* getelementptr inbounds ([9 x i8], [9 x i8]* @.str.2, i64 0, i64 0), i32 %26, i32 %27)
  %29 = load i32, i32* %5, align 4
  store i32 %29, i32* %4, align 4
  br label %30

30:                                               ; preds = %23, %15
  br label %31

31:                                               ; preds = %30
  %32 = load i32, i32* %2, align 4
  %33 = add nsw i32 %32, 1
  store i32 %33, i32* %2, align 4
  br label %8

34:                                               ; preds = %8
  %35 = call i32 (i8*, ...) @printf(i8* getelementptr inbounds ([4 x i8], [4 x i8]* @.str.3, i64 0, i64 0))
  ret void
}

declare dso_local i32 @__isoc99_scanf(i8*, ...) #1

declare dso_local i32 @printf(i8*, ...) #1


!llvm.module.flags = !{!0}
!llvm.ident = !{!1}

!0 = !{i32 1, !"wchar_size", i32 4}
!1 = !{!"clang version 10.0.0-4ubuntu1 "}
